; ModuleID = '43/1475.c'
source_filename = "43/1475.c"
target datalayout = "e-m:e-p270:32:32-p271:32:32-p272:64:64-i64:64-f80:128-n8:16:32:64-S128"
target triple = "x86_64-pc-linux-gnu"

@.str = private unnamed_addr constant [3 x i8] c"%d\00", align 1
@.str.1 = private unnamed_addr constant [7 x i8] c"%d %d\0A\00", align 1

; Function Attrs: noinline nounwind uwtable
define dso_local i32 @main() #0 {
  %1 = alloca i32, align 4
  %2 = alloca i32, align 4
  %3 = alloca i32, align 4
  %4 = alloca i32, align 4
  %5 = alloca i32, align 4
  %6 = alloca i32, align 4
  %7 = alloca i32, align 4
  store i32 0, i32* %1, align 4
  %8 = call i32 (i8*, ...) @__isoc99_scanf(i8* getelementptr inbounds ([3 x i8], [3 x i8]* @.str, i64 0, i64 0), i32* %2)
  store i32 2, i32* %3, align 4
  br label %9

9:                                                ; preds = %62, %0
  %10 = load i32, i32* %3, align 4
  %11 = load i32, i32* %2, align 4
  %12 = sdiv i32 %11, 2
  %13 = icmp sle i32 %10, %12
  br i1 %13, label %14, label %65

14:                                               ; preds = %9
  store i32 1, i32* %5, align 4
  store i32 2, i32* %4, align 4
  br label %15

15:                                               ; preds = %27, %14
  %16 = load i32, i32* %4, align 4
  %17 = load i32, i32* %3, align 4
  %18 = sdiv i32 %17, 2
  %19 = icmp slt i32 %16, %18
  br i1 %19, label %20, label %30

20:                                               ; preds = %15
  %21 = load i32, i32* %3, align 4
  %22 = load i32, i32* %4, align 4
  %23 = srem i32 %21, %22
  %24 = icmp eq i32 %23, 0
  br i1 %24, label %25, label %26

25:                                               ; preds = %20
  store i32 0, i32* %5, align 4
  br label %26

26:                                               ; preds = %25, %20
  br label %27

27:                                               ; preds = %26
  %28 = load i32, i32* %4, align 4
  %29 = add nsw i32 %28, 1
  store i32 %29, i32* %4, align 4
  br label %15

30:                                               ; preds = %15
  %31 = load i32, i32* %5, align 4
  %32 = icmp eq i32 %31, 1
  br i1 %32, label %33, label %61

33:                                               ; preds = %30
  %34 = load i32, i32* %2, align 4
  %35 = load i32, i32* %3, align 4
  %36 = sub nsw i32 %34, %35
  store i32 %36, i32* %6, align 4
  store i32 1, i32* %7, align 4
  store i32 2, i32* %4, align 4
  br label %37

37:                                               ; preds = %50, %33
  %38 = load i32, i32* %4, align 4
  %39 = load i32, i32* %6, align 4
  %40 = sdiv i32 %39, 2
  %41 = add nsw i32 %40, 1
  %42 = icmp slt i32 %38, %41
  br i1 %42, label %43, label %53

43:                                               ; preds = %37
  %44 = load i32, i32* %6, align 4
  %45 = load i32, i32* %4, align 4
  %46 = srem i32 %44, %45
  %47 = icmp eq i32 %46, 0
  br i1 %47, label %48, label %49

48:                                               ; preds = %43
  store i32 0, i32* %7, align 4
  br label %49

49:                                               ; preds = %48, %43
  br label %50

50:                                               ; preds = %49
  %51 = load i32, i32* %4, align 4
  %52 = add nsw i32 %51, 1
  store i32 %52, i32* %4, align 4
  br label %37

53:                                               ; preds = %37
  %54 = load i32, i32* %7, align 4
  %55 = icmp eq i32 %54, 1
  br i1 %55, label %56, label %60

56:                                               ; preds = %53
  %57 = load i32, i32* %3, align 4
  %58 = load i32, i32* %6, align 4
  %59 = call i32 (i8*, ...) @printf(i8* getelementptr inbounds ([7 x i8], [7 x i8]* @.str.1, i64 0, i64 0), i32 %57, i32 %58)
  br label %60

60:                                               ; preds = %56, %53
  br label %61

61:                                               ; preds = %60, %30
  br label %62

62:                                               ; preds = %61
  %63 = load i32, i32* %3, align 4
  %64 = add nsw i32 %63, 1
  store i32 %64, i32* %3, align 4
  br label %9

65:                                               ; preds = %9
  %66 = call i32 @getchar()
  %67 = call i32 @getchar()
  %68 = load i32, i32* %1, align 4
  ret i32 %68
}

declare dso_local i32 @__isoc99_scanf(i8*, ...) #1

declare dso_local i32 @printf(i8*, ...) #1

declare dso_local i32 @getchar() #1


!llvm.module.flags = !{!0}
!llvm.ident = !{!1}

!0 = !{i32 1, !"wchar_size", i32 4}
!1 = !{!"clang version 10.0.0-4ubuntu1 "}
